target datalayout = "e-m:e-p270:32:32-p271:32:32-p272:64:64-i64:64-i128:128-f80:128-n8:16:32:64-S128"
target triple = "x86_64-pc-linux-gnu"

@.str.4 = private unnamed_addr constant [2 x i8] c"\0A\00", align 1
@.str.5 = private unnamed_addr constant [33 x i8] c"    xprop [options] [selection]\0A\00", align 1
@.str.6 = private unnamed_addr constant [77 x i8] c"This pass transforms the circuit into an equivalent circuit that explicitly\0A\00", align 1
@.str.7 = private unnamed_addr constant [73 x i8] c"encodes the propagation of x values using purely 2-valued logic. On the\0A\00", align 1
@.str.8 = private unnamed_addr constant [78 x i8] c"interface between xprop-transformed and non-transformed parts of the design,\0A\00", align 1
@.str.9 = private unnamed_addr constant [53 x i8] c"appropriate conversions are inserted automatically.\0A\00", align 1
@.str.10 = private unnamed_addr constant [19 x i8] c"    -split-inputs\0A\00", align 1
@.str.11 = private unnamed_addr constant [20 x i8] c"    -split-outputs\0A\00", align 1
@.str.12 = private unnamed_addr constant [18 x i8] c"    -split-ports\0A\00", align 1
@.str.13 = private unnamed_addr constant [77 x i8] c"        Replace each input/output/port with two new ports, one carrying the\0A\00", align 1
@.str.14 = private unnamed_addr constant [80 x i8] c"        defined values (named <portname>_d) and one carrying the mask of which\0A\00", align 1
@.str.15 = private unnamed_addr constant [80 x i8] c"        bits are x (named <portname>_x). When a bit in the <portname>_x is set\0A\00", align 1
@.str.16 = private unnamed_addr constant [73 x i8] c"        the corresponding bit in <portname>_d is ignored for inputs and\0A\00", align 1
@.str.17 = private unnamed_addr constant [41 x i8] c"        guaranteed to be 0 for outputs.\0A\00", align 1
@.str.18 = private unnamed_addr constant [19 x i8] c"    -split-public\0A\00", align 1
@.str.19 = private unnamed_addr constant [80 x i8] c"        Replace each public non-port wire with two new wires, one carrying the\0A\00", align 1
@.str.20 = private unnamed_addr constant [80 x i8] c"        defined values (named <wirename>_d) and one carrying the mask of which\0A\00", align 1
@.str.21 = private unnamed_addr constant [80 x i8] c"        bits are x (named <wirename>_x). When a bit in the <portname>_x is set\0A\00", align 1
@.str.22 = private unnamed_addr constant [73 x i8] c"        the corresponding bit in <wirename>_d is guaranteed to be 0 for\0A\00", align 1
@.str.23 = private unnamed_addr constant [18 x i8] c"        outputs.\0A\00", align 1
@.str.24 = private unnamed_addr constant [22 x i8] c"    -assume-encoding\0A\00", align 1
@.str.25 = private unnamed_addr constant [74 x i8] c"        Add encoding invariants as assumptions. This can speed up formal\0A\00", align 1
@.str.26 = private unnamed_addr constant [29 x i8] c"        verification tasks.\0A\00", align 1
@.str.27 = private unnamed_addr constant [22 x i8] c"    -assert-encoding\0A\00", align 1
@.str.28 = private unnamed_addr constant [75 x i8] c"        Add encoding invariants as assertions. Used for testing the xprop\0A\00", align 1
@.str.29 = private unnamed_addr constant [22 x i8] c"        pass itself.\0A\00", align 1
@.str.30 = private unnamed_addr constant [24 x i8] c"    -assume-def-inputs\0A\00", align 1
@.str.31 = private unnamed_addr constant [70 x i8] c"        Assume all inputs are fully defined. This adds corresponding\0A\00", align 1
@.str.32 = private unnamed_addr constant [78 x i8] c"        assumptions to the design and uses these assumptions to optimize the\0A\00", align 1
@.str.33 = private unnamed_addr constant [25 x i8] c"        xprop encoding.\0A\00", align 1
@.str.34 = private unnamed_addr constant [15 x i8] c"    -required\0A\00", align 1
@.str.35 = private unnamed_addr constant [79 x i8] c"        Produce a runtime error if any encountered cell could not be encoded.\0A\00", align 1
@.str.36 = private unnamed_addr constant [13 x i8] c"    -formal\0A\00", align 1
@.str.37 = private unnamed_addr constant [75 x i8] c"        Produce a runtime error if any encoded cell uses a signal that is\0A\00", align 1
@.str.38 = private unnamed_addr constant [66 x i8] c"\09\09 neither known to be non-x nor driven by another encoded cell.\0A\00", align 1
@.str.39 = private unnamed_addr constant [20 x i8] c"    -debug-asserts\0A\00", align 1
@.str.40 = private unnamed_addr constant [75 x i8] c"        Add assertions checking that the encoding used by this pass never\0A\00", align 1
@.str.41 = private unnamed_addr constant [55 x i8] c"        produces x values within the encoded signals.\0A\00", align 1

; Function Attrs: mustprogress uwtable
define internal void @_ZN12_GLOBAL__N_19XpropPass4helpEv(ptr noundef nonnull align 8 dereferenceable(104) %0) unnamed_addr #4 align 2 {
  %2 = alloca ptr, align 8
  store ptr %0, ptr %2, align 8, !tbaa !6
  call void (ptr, ...) @_ZN5Yosys3logEPKcz(ptr noundef @.str.4)
  call void (ptr, ...) @_ZN5Yosys3logEPKcz(ptr noundef @.str.5)
  call void (ptr, ...) @_ZN5Yosys3logEPKcz(ptr noundef @.str.4)
  call void (ptr, ...) @_ZN5Yosys3logEPKcz(ptr noundef @.str.6)
  call void (ptr, ...) @_ZN5Yosys3logEPKcz(ptr noundef @.str.7)
  call void (ptr, ...) @_ZN5Yosys3logEPKcz(ptr noundef @.str.8)
  call void (ptr, ...) @_ZN5Yosys3logEPKcz(ptr noundef @.str.9)
  call void (ptr, ...) @_ZN5Yosys3logEPKcz(ptr noundef @.str.4)
  call void (ptr, ...) @_ZN5Yosys3logEPKcz(ptr noundef @.str.10)
  call void (ptr, ...) @_ZN5Yosys3logEPKcz(ptr noundef @.str.11)
  call void (ptr, ...) @_ZN5Yosys3logEPKcz(ptr noundef @.str.12)
  call void (ptr, ...) @_ZN5Yosys3logEPKcz(ptr noundef @.str.13)
  call void (ptr, ...) @_ZN5Yosys3logEPKcz(ptr noundef @.str.14)
  call void (ptr, ...) @_ZN5Yosys3logEPKcz(ptr noundef @.str.15)
  call void (ptr, ...) @_ZN5Yosys3logEPKcz(ptr noundef @.str.16)
  call void (ptr, ...) @_ZN5Yosys3logEPKcz(ptr noundef @.str.17)
  call void (ptr, ...) @_ZN5Yosys3logEPKcz(ptr noundef @.str.4)
  call void (ptr, ...) @_ZN5Yosys3logEPKcz(ptr noundef @.str.18)
  call void (ptr, ...) @_ZN5Yosys3logEPKcz(ptr noundef @.str.19)
  call void (ptr, ...) @_ZN5Yosys3logEPKcz(ptr noundef @.str.20)
  call void (ptr, ...) @_ZN5Yosys3logEPKcz(ptr noundef @.str.21)
  call void (ptr, ...) @_ZN5Yosys3logEPKcz(ptr noundef @.str.22)
  call void (ptr, ...) @_ZN5Yosys3logEPKcz(ptr noundef @.str.23)
  call void (ptr, ...) @_ZN5Yosys3logEPKcz(ptr noundef @.str.4)
  call void (ptr, ...) @_ZN5Yosys3logEPKcz(ptr noundef @.str.24)
  call void (ptr, ...) @_ZN5Yosys3logEPKcz(ptr noundef @.str.25)
  call void (ptr, ...) @_ZN5Yosys3logEPKcz(ptr noundef @.str.26)
  call void (ptr, ...) @_ZN5Yosys3logEPKcz(ptr noundef @.str.4)
  call void (ptr, ...) @_ZN5Yosys3logEPKcz(ptr noundef @.str.27)
  call void (ptr, ...) @_ZN5Yosys3logEPKcz(ptr noundef @.str.28)
  call void (ptr, ...) @_ZN5Yosys3logEPKcz(ptr noundef @.str.29)
  call void (ptr, ...) @_ZN5Yosys3logEPKcz(ptr noundef @.str.4)
  call void (ptr, ...) @_ZN5Yosys3logEPKcz(ptr noundef @.str.30)
  call void (ptr, ...) @_ZN5Yosys3logEPKcz(ptr noundef @.str.31)
  call void (ptr, ...) @_ZN5Yosys3logEPKcz(ptr noundef @.str.32)
  call void (ptr, ...) @_ZN5Yosys3logEPKcz(ptr noundef @.str.33)
  call void (ptr, ...) @_ZN5Yosys3logEPKcz(ptr noundef @.str.4)
  call void (ptr, ...) @_ZN5Yosys3logEPKcz(ptr noundef @.str.34)
  call void (ptr, ...) @_ZN5Yosys3logEPKcz(ptr noundef @.str.35)
  call void (ptr, ...) @_ZN5Yosys3logEPKcz(ptr noundef @.str.4)
  call void (ptr, ...) @_ZN5Yosys3logEPKcz(ptr noundef @.str.36)
  call void (ptr, ...) @_ZN5Yosys3logEPKcz(ptr noundef @.str.37)
  call void (ptr, ...) @_ZN5Yosys3logEPKcz(ptr noundef @.str.38)
  call void (ptr, ...) @_ZN5Yosys3logEPKcz(ptr noundef @.str.4)
  call void (ptr, ...) @_ZN5Yosys3logEPKcz(ptr noundef @.str.39)
  call void (ptr, ...) @_ZN5Yosys3logEPKcz(ptr noundef @.str.40)
  call void (ptr, ...) @_ZN5Yosys3logEPKcz(ptr noundef @.str.41)
  call void (ptr, ...) @_ZN5Yosys3logEPKcz(ptr noundef @.str.4)
  ret void
}